; Function Attrs: nounwind uwtable
define range(i32 0, 2) i32 @X509_VERIFY_PARAM_set1_ip(ptr noundef captures(none) %0, ptr noundef readonly captures(address_is_null) %1, i64 noundef %2) local_unnamed_addr #0 {
  switch i64 %2, label %4 [
    i64 16, label %5
    i64 4, label %5
    i64 0, label %5
  ]

4:                                                ; preds = %3
  tail call void @ERR_new() #9
  tail call void @ERR_set_debug(ptr noundef nonnull @.str, i32 noundef 472, ptr noundef nonnull @__func__.X509_VERIFY_PARAM_set1_ip) #9
  tail call void (i32, i32, ptr, ...) @ERR_set_error(i32 noundef 11, i32 noundef 524550, ptr noundef null) #9
  br label %int_x509_param_set1.exit

5:                                                ; preds = %3, %3, %3
  %6 = getelementptr inbounds nuw i8, ptr %0, i64 96
  %7 = getelementptr inbounds nuw i8, ptr %0, i64 104
  %.not.i = icmp eq ptr %1, null
  br i1 %.not.i, label %18, label %8

8:                                                ; preds = %5
  %9 = icmp eq i64 %2, 0
  br i1 %9, label %10, label %12

10:                                               ; preds = %8
  %11 = tail call i64 @strlen(ptr noundef nonnull readonly dereferenceable(1) %1) #10
  br label %12

12:                                               ; preds = %10, %8
  %.016.i = phi i64 [ %11, %10 ], [ %2, %8 ]
  %13 = add i64 %.016.i, 1
  %14 = tail call noalias ptr @CRYPTO_malloc(i64 noundef %13, ptr noundef nonnull @.str, i32 noundef 245) #9
  %15 = icmp eq ptr %14, null
  br i1 %15, label %int_x509_param_set1.exit, label %16

16:                                               ; preds = %12
  tail call void @llvm.memcpy.p0.p0.i64(ptr nonnull align 1 %14, ptr nonnull readonly align 1 %1, i64 %.016.i, i1 false)
  %17 = getelementptr inbounds nuw i8, ptr %14, i64 %.016.i
  store i8 0, ptr %17, align 1, !tbaa !26
  br label %18

18:                                               ; preds = %16, %5
  %.1.i = phi i64 [ %.016.i, %16 ], [ 0, %5 ]
  %.0.i = phi ptr [ %14, %16 ], [ null, %5 ]
  %19 = load ptr, ptr %6, align 8, !tbaa !27
  tail call void @CRYPTO_free(ptr noundef %19, ptr noundef nonnull @.str, i32 noundef 254) #9
  store ptr %.0.i, ptr %6, align 8, !tbaa !27
  store i64 %.1.i, ptr %7, align 8, !tbaa !28
  br label %int_x509_param_set1.exit

int_x509_param_set1.exit:                         ; preds = %18, %12, %4
  %.0 = phi i32 [ 0, %4 ], [ 0, %12 ], [ 1, %18 ]
  ret i32 %.0
}